target datalayout = "e-m:e-p270:32:32-p271:32:32-p272:64:64-i64:64-i128:128-f80:128-n8:16:32:64-S128"
target triple = "x86_64-unknown-linux-gnu"

%struct.asn1_string_st = type { i32, i32, ptr, i64 }

@.str = private unnamed_addr constant [126 x i8] c"generated/home/dtcxzyw/WorkSpace/Projects/compilers/llvm-opt-benchmark/bench/libquic/libquic/boringssl/crypto/asn1/asn1_lib.c\00", align 1

; Function Attrs: nounwind uwtable
define hidden ptr @ASN1_STRING_type_new(i32 noundef %type) #0 {
entry:
  %retval = alloca ptr, align 8
  %type.addr = alloca i32, align 4
  %ret = alloca ptr, align 8
  store i32 %type, ptr %type.addr, align 4
  %call = call noalias ptr @malloc(i64 noundef 24) #8
  store ptr %call, ptr %ret, align 8
  %0 = load ptr, ptr %ret, align 8
  %cmp = icmp eq ptr %0, null
  br i1 %cmp, label %if.then, label %if.end

if.then:                                          ; preds = %entry
  call void @ERR_put_error(i32 noundef 12, i32 noundef 0, i32 noundef 65, ptr noundef @.str, i32 noundef 452)
  store ptr null, ptr %retval, align 8
  br label %return

if.end:                                           ; preds = %entry
  %1 = load ptr, ptr %ret, align 8
  %length = getelementptr inbounds %struct.asn1_string_st, ptr %1, i32 0, i32 0
  store i32 0, ptr %length, align 8
  %2 = load i32, ptr %type.addr, align 4
  %3 = load ptr, ptr %ret, align 8
  %type1 = getelementptr inbounds %struct.asn1_string_st, ptr %3, i32 0, i32 1
  store i32 %2, ptr %type1, align 4
  %4 = load ptr, ptr %ret, align 8
  %data = getelementptr inbounds %struct.asn1_string_st, ptr %4, i32 0, i32 2
  store ptr null, ptr %data, align 8
  %5 = load ptr, ptr %ret, align 8
  %flags = getelementptr inbounds %struct.asn1_string_st, ptr %5, i32 0, i32 3
  store i64 0, ptr %flags, align 8
  %6 = load ptr, ptr %ret, align 8
  store ptr %6, ptr %retval, align 8
  br label %return

return:                                           ; preds = %if.end, %if.then
  %7 = load ptr, ptr %retval, align 8
  ret ptr %7
}