; Function Attrs: nounwind uwtable
define hidden noalias noundef ptr @ASN1_STRING_type_new(i32 noundef %type) local_unnamed_addr #1 {
entry:
  %call = tail call noalias dereferenceable_or_null(24) ptr @malloc(i64 noundef 24) #18
  %cmp = icmp eq ptr %call, null
  br i1 %cmp, label %if.then, label %if.end

if.then:                                          ; preds = %entry
  tail call void @ERR_put_error(i32 noundef 12, i32 noundef 0, i32 noundef 65, ptr noundef nonnull @.str, i32 noundef 452) #16
  br label %return

if.end:                                           ; preds = %entry
  store i32 0, ptr %call, align 8
  %type1 = getelementptr inbounds nuw i8, ptr %call, i64 4
  store i32 %type, ptr %type1, align 4
  %data = getelementptr inbounds nuw i8, ptr %call, i64 8
  tail call void @llvm.memset.p0.i64(ptr noundef nonnull align 8 dereferenceable(16) %data, i8 0, i64 16, i1 false)
  br label %return

return:                                           ; preds = %if.end, %if.then
  ret ptr %call
}